target datalayout = "e-m:e-p270:32:32-p271:32:32-p272:64:64-i64:64-i128:128-f80:128-n8:16:32:64-S128"
target triple = "x86_64-unknown-linux-gnu"

%struct.UDataInfo = type { i16, i16, i8, i8, i8, i8, [4 x i8], [4 x i8], [4 x i8] }
%struct.UDataSwapper = type { i8, i8, i8, i8, ptr, ptr, ptr, ptr, ptr, ptr, ptr, ptr, ptr, ptr, ptr }

@.str.2 = private unnamed_addr constant [108 x i8] c"unorm2_swap(): data format %02x.%02x.%02x.%02x (format version %02x) is not recognized as Normalizer2 data\0A\00", align 1
@.str.3 = private unnamed_addr constant [69 x i8] c"unorm2_swap(): too few bytes (%d after header) for Normalizer2 data\0A\00", align 1
@.str.4 = private unnamed_addr constant [76 x i8] c"unorm2_swap(): too few bytes (%d after header) for all of Normalizer2 data\0A\00", align 1

; Function Attrs: mustprogress nounwind uwtable
define internal noundef signext i8 @_ZL9U_FAILURE10UErrorCode(i32 noundef %code) #2 {
entry:
  %code.addr = alloca i32, align 4
  store i32 %code, ptr %code.addr, align 4
  %0 = load i32, ptr %code.addr, align 4
  %cmp = icmp sgt i32 %0, 0
  %conv = zext i1 %cmp to i8
  ret i8 %conv
}

; Function Attrs: mustprogress uwtable
define i32 @unorm2_swap_75(ptr noundef %ds, ptr noundef %inData, i32 noundef %length, ptr noundef %outData, ptr noundef %pErrorCode) #0 {
entry:
  %retval = alloca i32, align 4
  %ds.addr = alloca ptr, align 8
  %inData.addr = alloca ptr, align 8
  %length.addr = alloca i32, align 4
  %outData.addr = alloca ptr, align 8
  %pErrorCode.addr = alloca ptr, align 8
  %pInfo = alloca ptr, align 8
  %headerSize = alloca i32, align 4
  %inBytes = alloca ptr, align 8
  %outBytes = alloca ptr, align 8
  %inIndexes = alloca ptr, align 8
  %indexes = alloca [8 x i32], align 16
  %i = alloca i32, align 4
  %offset = alloca i32, align 4
  %nextOffset = alloca i32, align 4
  %size = alloca i32, align 4
  %formatVersion0 = alloca i8, align 1
  %minIndexesLength = alloca i32, align 4
  store ptr %ds, ptr %ds.addr, align 8
  store ptr %inData, ptr %inData.addr, align 8
  store i32 %length, ptr %length.addr, align 4
  store ptr %outData, ptr %outData.addr, align 8
  store ptr %pErrorCode, ptr %pErrorCode.addr, align 8
  %0 = load ptr, ptr %ds.addr, align 8
  %1 = load ptr, ptr %inData.addr, align 8
  %2 = load i32, ptr %length.addr, align 4
  %3 = load ptr, ptr %outData.addr, align 8
  %4 = load ptr, ptr %pErrorCode.addr, align 8
  %call = call i32 @udata_swapDataHeader_75(ptr noundef %0, ptr noundef %1, i32 noundef %2, ptr noundef %3, ptr noundef %4)
  store i32 %call, ptr %headerSize, align 4
  %5 = load ptr, ptr %pErrorCode.addr, align 8
  %cmp = icmp eq ptr %5, null
  br i1 %cmp, label %if.then, label %lor.lhs.false

lor.lhs.false:                                    ; preds = %entry
  %6 = load ptr, ptr %pErrorCode.addr, align 8
  %7 = load i32, ptr %6, align 4
  %call1 = call noundef signext i8 @_ZL9U_FAILURE10UErrorCode(i32 noundef %7)
  %tobool = icmp ne i8 %call1, 0
  br i1 %tobool, label %if.then, label %if.end

if.then:                                          ; preds = %lor.lhs.false, %entry
  store i32 0, ptr %retval, align 4
  br label %return

if.end:                                           ; preds = %lor.lhs.false
  %8 = load ptr, ptr %inData.addr, align 8
  %add.ptr = getelementptr inbounds i8, ptr %8, i64 4
  store ptr %add.ptr, ptr %pInfo, align 8
  %9 = load ptr, ptr %pInfo, align 8
  %formatVersion = getelementptr inbounds %struct.UDataInfo, ptr %9, i32 0, i32 7
  %arrayidx = getelementptr inbounds [4 x i8], ptr %formatVersion, i64 0, i64 0
  %10 = load i8, ptr %arrayidx, align 2
  store i8 %10, ptr %formatVersion0, align 1
  %11 = load ptr, ptr %pInfo, align 8
  %dataFormat = getelementptr inbounds %struct.UDataInfo, ptr %11, i32 0, i32 6
  %arrayidx2 = getelementptr inbounds [4 x i8], ptr %dataFormat, i64 0, i64 0
  %12 = load i8, ptr %arrayidx2, align 2
  %conv = zext i8 %12 to i32
  %cmp3 = icmp eq i32 %conv, 78
  br i1 %cmp3, label %land.lhs.true, label %if.then24

land.lhs.true:                                    ; preds = %if.end
  %13 = load ptr, ptr %pInfo, align 8
  %dataFormat4 = getelementptr inbounds %struct.UDataInfo, ptr %13, i32 0, i32 6
  %arrayidx5 = getelementptr inbounds [4 x i8], ptr %dataFormat4, i64 0, i64 1
  %14 = load i8, ptr %arrayidx5, align 1
  %conv6 = zext i8 %14 to i32
  %cmp7 = icmp eq i32 %conv6, 114
  br i1 %cmp7, label %land.lhs.true8, label %if.then24

land.lhs.true8:                                   ; preds = %land.lhs.true
  %15 = load ptr, ptr %pInfo, align 8
  %dataFormat9 = getelementptr inbounds %struct.UDataInfo, ptr %15, i32 0, i32 6
  %arrayidx10 = getelementptr inbounds [4 x i8], ptr %dataFormat9, i64 0, i64 2
  %16 = load i8, ptr %arrayidx10, align 2
  %conv11 = zext i8 %16 to i32
  %cmp12 = icmp eq i32 %conv11, 109
  br i1 %cmp12, label %land.lhs.true13, label %if.then24

land.lhs.true13:                                  ; preds = %land.lhs.true8
  %17 = load ptr, ptr %pInfo, align 8
  %dataFormat14 = getelementptr inbounds %struct.UDataInfo, ptr %17, i32 0, i32 6
  %arrayidx15 = getelementptr inbounds [4 x i8], ptr %dataFormat14, i64 0, i64 3
  %18 = load i8, ptr %arrayidx15, align 1
  %conv16 = zext i8 %18 to i32
  %cmp17 = icmp eq i32 %conv16, 50
  br i1 %cmp17, label %land.lhs.true18, label %if.then24

land.lhs.true18:                                  ; preds = %land.lhs.true13
  %19 = load i8, ptr %formatVersion0, align 1
  %conv19 = zext i8 %19 to i32
  %cmp20 = icmp sle i32 1, %conv19
  br i1 %cmp20, label %land.lhs.true21, label %if.then24

land.lhs.true21:                                  ; preds = %land.lhs.true18
  %20 = load i8, ptr %formatVersion0, align 1
  %conv22 = zext i8 %20 to i32
  %cmp23 = icmp sle i32 %conv22, 4
  br i1 %cmp23, label %if.end40, label %if.then24

if.then24:                                        ; preds = %land.lhs.true21, %land.lhs.true18, %land.lhs.true13, %land.lhs.true8, %land.lhs.true, %if.end
  %21 = load ptr, ptr %ds.addr, align 8
  %22 = load ptr, ptr %pInfo, align 8
  %dataFormat25 = getelementptr inbounds %struct.UDataInfo, ptr %22, i32 0, i32 6
  %arrayidx26 = getelementptr inbounds [4 x i8], ptr %dataFormat25, i64 0, i64 0
  %23 = load i8, ptr %arrayidx26, align 2
  %conv27 = zext i8 %23 to i32
  %24 = load ptr, ptr %pInfo, align 8
  %dataFormat28 = getelementptr inbounds %struct.UDataInfo, ptr %24, i32 0, i32 6
  %arrayidx29 = getelementptr inbounds [4 x i8], ptr %dataFormat28, i64 0, i64 1
  %25 = load i8, ptr %arrayidx29, align 1
  %conv30 = zext i8 %25 to i32
  %26 = load ptr, ptr %pInfo, align 8
  %dataFormat31 = getelementptr inbounds %struct.UDataInfo, ptr %26, i32 0, i32 6
  %arrayidx32 = getelementptr inbounds [4 x i8], ptr %dataFormat31, i64 0, i64 2
  %27 = load i8, ptr %arrayidx32, align 2
  %conv33 = zext i8 %27 to i32
  %28 = load ptr, ptr %pInfo, align 8
  %dataFormat34 = getelementptr inbounds %struct.UDataInfo, ptr %28, i32 0, i32 6
  %arrayidx35 = getelementptr inbounds [4 x i8], ptr %dataFormat34, i64 0, i64 3
  %29 = load i8, ptr %arrayidx35, align 1
  %conv36 = zext i8 %29 to i32
  %30 = load ptr, ptr %pInfo, align 8
  %formatVersion37 = getelementptr inbounds %struct.UDataInfo, ptr %30, i32 0, i32 7
  %arrayidx38 = getelementptr inbounds [4 x i8], ptr %formatVersion37, i64 0, i64 0
  %31 = load i8, ptr %arrayidx38, align 2
  %conv39 = zext i8 %31 to i32
  call void (ptr, ptr, ...) @udata_printError_75(ptr noundef %21, ptr noundef @.str.2, i32 noundef %conv27, i32 noundef %conv30, i32 noundef %conv33, i32 noundef %conv36, i32 noundef %conv39)
  %32 = load ptr, ptr %pErrorCode.addr, align 8
  store i32 16, ptr %32, align 4
  store i32 0, ptr %retval, align 4
  br label %return

if.end40:                                         ; preds = %land.lhs.true21
  %33 = load ptr, ptr %inData.addr, align 8
  %34 = load i32, ptr %headerSize, align 4
  %idx.ext = sext i32 %34 to i64
  %add.ptr41 = getelementptr inbounds i8, ptr %33, i64 %idx.ext
  store ptr %add.ptr41, ptr %inBytes, align 8
  %35 = load ptr, ptr %outData.addr, align 8
  %cmp42 = icmp eq ptr %35, null
  br i1 %cmp42, label %cond.true, label %cond.false

cond.true:                                        ; preds = %if.end40
  br label %cond.end

cond.false:                                       ; preds = %if.end40
  %36 = load ptr, ptr %outData.addr, align 8
  %37 = load i32, ptr %headerSize, align 4
  %idx.ext43 = sext i32 %37 to i64
  %add.ptr44 = getelementptr inbounds i8, ptr %36, i64 %idx.ext43
  br label %cond.end

cond.end:                                         ; preds = %cond.false, %cond.true
  %cond = phi ptr [ null, %cond.true ], [ %add.ptr44, %cond.false ]
  store ptr %cond, ptr %outBytes, align 8
  %38 = load ptr, ptr %inBytes, align 8
  store ptr %38, ptr %inIndexes, align 8
  %39 = load i8, ptr %formatVersion0, align 1
  %conv45 = zext i8 %39 to i32
  %cmp46 = icmp eq i32 %conv45, 1
  br i1 %cmp46, label %if.then47, label %if.else

if.then47:                                        ; preds = %cond.end
  store i32 14, ptr %minIndexesLength, align 4
  br label %if.end53

if.else:                                          ; preds = %cond.end
  %40 = load i8, ptr %formatVersion0, align 1
  %conv48 = zext i8 %40 to i32
  %cmp49 = icmp eq i32 %conv48, 2
  br i1 %cmp49, label %if.then50, label %if.else51

if.then50:                                        ; preds = %if.else
  store i32 15, ptr %minIndexesLength, align 4
  br label %if.end52

if.else51:                                        ; preds = %if.else
  store i32 19, ptr %minIndexesLength, align 4
  br label %if.end52

if.end52:                                         ; preds = %if.else51, %if.then50
  br label %if.end53

if.end53:                                         ; preds = %if.end52, %if.then47
  %41 = load i32, ptr %length.addr, align 4
  %cmp54 = icmp sge i32 %41, 0
  br i1 %cmp54, label %if.then55, label %if.end59

if.then55:                                        ; preds = %if.end53
  %42 = load i32, ptr %headerSize, align 4
  %43 = load i32, ptr %length.addr, align 4
  %sub = sub nsw i32 %43, %42
  store i32 %sub, ptr %length.addr, align 4
  %44 = load i32, ptr %length.addr, align 4
  %45 = load i32, ptr %minIndexesLength, align 4
  %mul = mul nsw i32 %45, 4
  %cmp56 = icmp slt i32 %44, %mul
  br i1 %cmp56, label %if.then57, label %if.end58

if.then57:                                        ; preds = %if.then55
  %46 = load ptr, ptr %ds.addr, align 8
  %47 = load i32, ptr %length.addr, align 4
  call void (ptr, ptr, ...) @udata_printError_75(ptr noundef %46, ptr noundef @.str.3, i32 noundef %47)
  %48 = load ptr, ptr %pErrorCode.addr, align 8
  store i32 8, ptr %48, align 4
  store i32 0, ptr %retval, align 4
  br label %return

if.end58:                                         ; preds = %if.then55
  br label %if.end59

if.end59:                                         ; preds = %if.end58, %if.end53
  store i32 0, ptr %i, align 4
  br label %for.cond

for.cond:                                         ; preds = %for.inc, %if.end59
  %49 = load i32, ptr %i, align 4
  %cmp60 = icmp slt i32 %49, 8
  br i1 %cmp60, label %for.body, label %for.end

for.body:                                         ; preds = %for.cond
  %50 = load ptr, ptr %ds.addr, align 8
  %51 = load ptr, ptr %inIndexes, align 8
  %52 = load i32, ptr %i, align 4
  %idxprom = sext i32 %52 to i64
  %arrayidx61 = getelementptr inbounds i32, ptr %51, i64 %idxprom
  %53 = load i32, ptr %arrayidx61, align 4
  %call62 = call i32 @udata_readInt32_75(ptr noundef %50, i32 noundef %53)
  %54 = load i32, ptr %i, align 4
  %idxprom63 = sext i32 %54 to i64
  %arrayidx64 = getelementptr inbounds [8 x i32], ptr %indexes, i64 0, i64 %idxprom63
  store i32 %call62, ptr %arrayidx64, align 4
  br label %for.inc

for.inc:                                          ; preds = %for.body
  %55 = load i32, ptr %i, align 4
  %inc = add nsw i32 %55, 1
  store i32 %inc, ptr %i, align 4
  br label %for.cond, !llvm.loop !52

for.end:                                          ; preds = %for.cond
  %arrayidx65 = getelementptr inbounds [8 x i32], ptr %indexes, i64 0, i64 7
  %56 = load i32, ptr %arrayidx65, align 4
  store i32 %56, ptr %size, align 4
  %57 = load i32, ptr %length.addr, align 4
  %cmp66 = icmp sge i32 %57, 0
  br i1 %cmp66, label %if.then67, label %if.end93

if.then67:                                        ; preds = %for.end
  %58 = load i32, ptr %length.addr, align 4
  %59 = load i32, ptr %size, align 4
  %cmp68 = icmp slt i32 %58, %59
  br i1 %cmp68, label %if.then69, label %if.end70

if.then69:                                        ; preds = %if.then67
  %60 = load ptr, ptr %ds.addr, align 8
  %61 = load i32, ptr %length.addr, align 4
  call void (ptr, ptr, ...) @udata_printError_75(ptr noundef %60, ptr noundef @.str.4, i32 noundef %61)
  %62 = load ptr, ptr %pErrorCode.addr, align 8
  store i32 8, ptr %62, align 4
  store i32 0, ptr %retval, align 4
  br label %return

if.end70:                                         ; preds = %if.then67
  %63 = load ptr, ptr %inBytes, align 8
  %64 = load ptr, ptr %outBytes, align 8
  %cmp71 = icmp ne ptr %63, %64
  br i1 %cmp71, label %if.then72, label %if.end74

if.then72:                                        ; preds = %if.end70
  br label %do.body

do.body:                                          ; preds = %if.then72
  %65 = load ptr, ptr %outBytes, align 8
  %66 = load ptr, ptr %inBytes, align 8
  %67 = load i32, ptr %size, align 4
  %conv73 = sext i32 %67 to i64
  call void @llvm.memcpy.p0.p0.i64(ptr align 1 %65, ptr align 1 %66, i64 %conv73, i1 false)
  br label %do.end

do.end:                                           ; preds = %do.body
  br label %if.end74

if.end74:                                         ; preds = %do.end, %if.end70
  store i32 0, ptr %offset, align 4
  %arrayidx75 = getelementptr inbounds [8 x i32], ptr %indexes, i64 0, i64 0
  %68 = load i32, ptr %arrayidx75, align 16
  store i32 %68, ptr %nextOffset, align 4
  %69 = load ptr, ptr %ds.addr, align 8
  %swapArray32 = getelementptr inbounds %struct.UDataSwapper, ptr %69, i32 0, i32 10
  %70 = load ptr, ptr %swapArray32, align 8
  %71 = load ptr, ptr %ds.addr, align 8
  %72 = load ptr, ptr %inBytes, align 8
  %73 = load i32, ptr %nextOffset, align 4
  %74 = load i32, ptr %offset, align 4
  %sub76 = sub nsw i32 %73, %74
  %75 = load ptr, ptr %outBytes, align 8
  %76 = load ptr, ptr %pErrorCode.addr, align 8
  %call77 = call noundef i32 %70(ptr noundef %71, ptr noundef %72, i32 noundef %sub76, ptr noundef %75, ptr noundef %76)
  %77 = load i32, ptr %nextOffset, align 4
  store i32 %77, ptr %offset, align 4
  %arrayidx78 = getelementptr inbounds [8 x i32], ptr %indexes, i64 0, i64 1
  %78 = load i32, ptr %arrayidx78, align 4
  store i32 %78, ptr %nextOffset, align 4
  %79 = load ptr, ptr %ds.addr, align 8
  %80 = load ptr, ptr %inBytes, align 8
  %81 = load i32, ptr %offset, align 4
  %idx.ext79 = sext i32 %81 to i64
  %add.ptr80 = getelementptr inbounds i8, ptr %80, i64 %idx.ext79
  %82 = load i32, ptr %nextOffset, align 4
  %83 = load i32, ptr %offset, align 4
  %sub81 = sub nsw i32 %82, %83
  %84 = load ptr, ptr %outBytes, align 8
  %85 = load i32, ptr %offset, align 4
  %idx.ext82 = sext i32 %85 to i64
  %add.ptr83 = getelementptr inbounds i8, ptr %84, i64 %idx.ext82
  %86 = load ptr, ptr %pErrorCode.addr, align 8
  %call84 = call i32 @utrie_swapAnyVersion_75(ptr noundef %79, ptr noundef %add.ptr80, i32 noundef %sub81, ptr noundef %add.ptr83, ptr noundef %86)
  %87 = load i32, ptr %nextOffset, align 4
  store i32 %87, ptr %offset, align 4
  %arrayidx85 = getelementptr inbounds [8 x i32], ptr %indexes, i64 0, i64 2
  %88 = load i32, ptr %arrayidx85, align 8
  store i32 %88, ptr %nextOffset, align 4
  %89 = load ptr, ptr %ds.addr, align 8
  %swapArray16 = getelementptr inbounds %struct.UDataSwapper, ptr %89, i32 0, i32 9
  %90 = load ptr, ptr %swapArray16, align 8
  %91 = load ptr, ptr %ds.addr, align 8
  %92 = load ptr, ptr %inBytes, align 8
  %93 = load i32, ptr %offset, align 4
  %idx.ext86 = sext i32 %93 to i64
  %add.ptr87 = getelementptr inbounds i8, ptr %92, i64 %idx.ext86
  %94 = load i32, ptr %nextOffset, align 4
  %95 = load i32, ptr %offset, align 4
  %sub88 = sub nsw i32 %94, %95
  %96 = load ptr, ptr %outBytes, align 8
  %97 = load i32, ptr %offset, align 4
  %idx.ext89 = sext i32 %97 to i64
  %add.ptr90 = getelementptr inbounds i8, ptr %96, i64 %idx.ext89
  %98 = load ptr, ptr %pErrorCode.addr, align 8
  %call91 = call noundef i32 %90(ptr noundef %91, ptr noundef %add.ptr87, i32 noundef %sub88, ptr noundef %add.ptr90, ptr noundef %98)
  %99 = load i32, ptr %nextOffset, align 4
  store i32 %99, ptr %offset, align 4
  %arrayidx92 = getelementptr inbounds [8 x i32], ptr %indexes, i64 0, i64 3
  %100 = load i32, ptr %arrayidx92, align 4
  store i32 %100, ptr %nextOffset, align 4
  %101 = load i32, ptr %nextOffset, align 4
  store i32 %101, ptr %offset, align 4
  br label %if.end93

if.end93:                                         ; preds = %if.end74, %for.end
  %102 = load i32, ptr %headerSize, align 4
  %103 = load i32, ptr %size, align 4
  %add = add nsw i32 %102, %103
  store i32 %add, ptr %retval, align 4
  br label %return

return:                                           ; preds = %if.end93, %if.then69, %if.then57, %if.then24, %if.then
  %104 = load i32, ptr %retval, align 4
  ret i32 %104
}