; Function Attrs: mustprogress uwtable
define i32 @unorm2_swap_75(ptr noundef %ds, ptr noundef %inData, i32 noundef %length, ptr noundef %outData, ptr noundef %pErrorCode) local_unnamed_addr #0 {
entry:
  %indexes = alloca [8 x i32], align 16
  %call = tail call i32 @udata_swapDataHeader_75(ptr noundef %ds, ptr noundef %inData, i32 noundef %length, ptr noundef %outData, ptr noundef %pErrorCode)
  %cmp = icmp eq ptr %pErrorCode, null
  br i1 %cmp, label %return, label %lor.lhs.false

lor.lhs.false:                                    ; preds = %entry
  %0 = load i32, ptr %pErrorCode, align 4
  %cmp.i = icmp slt i32 %0, 1
  br i1 %cmp.i, label %if.end, label %return

if.end:                                           ; preds = %lor.lhs.false
  %formatVersion = getelementptr inbounds i8, ptr %inData, i64 16
  %1 = load i8, ptr %formatVersion, align 2
  %dataFormat = getelementptr inbounds i8, ptr %inData, i64 12
  %2 = load i8, ptr %dataFormat, align 2
  %cmp3 = icmp eq i8 %2, 78
  %arrayidx5 = getelementptr inbounds i8, ptr %inData, i64 13
  %3 = load i8, ptr %arrayidx5, align 1
  %cmp7 = icmp eq i8 %3, 114
  %or.cond75 = select i1 %cmp3, i1 %cmp7, i1 false
  br i1 %or.cond75, label %land.lhs.true8, label %if.then24

land.lhs.true8:                                   ; preds = %if.end
  %arrayidx10 = getelementptr inbounds i8, ptr %inData, i64 14
  %4 = load i8, ptr %arrayidx10, align 2
  %cmp12 = icmp eq i8 %4, 109
  br i1 %cmp12, label %land.lhs.true13, label %if.then24

land.lhs.true13:                                  ; preds = %land.lhs.true8
  %arrayidx15 = getelementptr inbounds i8, ptr %inData, i64 15
  %5 = load i8, ptr %arrayidx15, align 1
  %cmp17 = icmp eq i8 %5, 50
  %cmp20 = icmp ne i8 %1, 0
  %or.cond = select i1 %cmp17, i1 %cmp20, i1 false
  %cmp23 = icmp ult i8 %1, 5
  %or.cond1 = select i1 %or.cond, i1 %cmp23, i1 false
  br i1 %or.cond1, label %if.end40, label %if.then24

if.then24:                                        ; preds = %if.end, %land.lhs.true13, %land.lhs.true8
  %6 = phi i8 [ 114, %land.lhs.true13 ], [ 114, %land.lhs.true8 ], [ %3, %if.end ]
  %conv27 = zext i8 %2 to i32
  %conv30 = zext i8 %6 to i32
  %arrayidx32 = getelementptr inbounds i8, ptr %inData, i64 14
  %7 = load i8, ptr %arrayidx32, align 2
  %conv33 = zext i8 %7 to i32
  %arrayidx35 = getelementptr inbounds i8, ptr %inData, i64 15
  %8 = load i8, ptr %arrayidx35, align 1
  %conv36 = zext i8 %8 to i32
  %conv39 = zext i8 %1 to i32
  tail call void (ptr, ptr, ...) @udata_printError_75(ptr noundef %ds, ptr noundef nonnull @.str.2, i32 noundef %conv27, i32 noundef %conv30, i32 noundef %conv33, i32 noundef %conv36, i32 noundef %conv39)
  store i32 16, ptr %pErrorCode, align 4
  br label %return

if.end40:                                         ; preds = %land.lhs.true13
  %idx.ext = sext i32 %call to i64
  %add.ptr41 = getelementptr inbounds i8, ptr %inData, i64 %idx.ext
  %cmp42 = icmp eq ptr %outData, null
  %add.ptr44 = getelementptr inbounds i8, ptr %outData, i64 %idx.ext
  %cond = select i1 %cmp42, ptr null, ptr %add.ptr44
  %cmp54 = icmp sgt i32 %length, -1
  br i1 %cmp54, label %if.then55, label %if.end59

if.then55:                                        ; preds = %if.end40
  %switch.selectcmp71 = icmp eq i8 %1, 1
  %switch.selectcmp = icmp eq i8 %1, 2
  %switch.select = select i1 %switch.selectcmp, i32 60, i32 76
  %switch.select72 = select i1 %switch.selectcmp71, i32 56, i32 %switch.select
  %sub = sub nsw i32 %length, %call
  %cmp56 = icmp slt i32 %sub, %switch.select72
  br i1 %cmp56, label %if.then57, label %if.end59

if.then57:                                        ; preds = %if.then55
  tail call void (ptr, ptr, ...) @udata_printError_75(ptr noundef %ds, ptr noundef nonnull @.str.3, i32 noundef %sub)
  store i32 8, ptr %pErrorCode, align 4
  br label %return

if.end59:                                         ; preds = %if.then55, %if.end40
  %length.addr.0 = phi i32 [ %sub, %if.then55 ], [ %length, %if.end40 ]
  br label %for.body

for.body:                                         ; preds = %if.end59, %for.body
  %indvars.iv = phi i64 [ 0, %if.end59 ], [ %indvars.iv.next, %for.body ]
  %arrayidx61 = getelementptr inbounds i32, ptr %add.ptr41, i64 %indvars.iv
  %9 = load i32, ptr %arrayidx61, align 4
  %call62 = tail call i32 @udata_readInt32_75(ptr noundef %ds, i32 noundef %9)
  %arrayidx64 = getelementptr inbounds [8 x i32], ptr %indexes, i64 0, i64 %indvars.iv
  store i32 %call62, ptr %arrayidx64, align 4
  %indvars.iv.next = add nuw nsw i64 %indvars.iv, 1
  %exitcond.not = icmp eq i64 %indvars.iv.next, 8
  br i1 %exitcond.not, label %for.end, label %for.body, !llvm.loop !49

for.end:                                          ; preds = %for.body
  %arrayidx65 = getelementptr inbounds i8, ptr %indexes, i64 28
  %10 = load i32, ptr %arrayidx65, align 4
  %cmp66 = icmp sgt i32 %length.addr.0, -1
  br i1 %cmp66, label %if.then67, label %if.end93

if.then67:                                        ; preds = %for.end
  %cmp68 = icmp slt i32 %length.addr.0, %10
  br i1 %cmp68, label %if.then69, label %if.end70

if.then69:                                        ; preds = %if.then67
  tail call void (ptr, ptr, ...) @udata_printError_75(ptr noundef %ds, ptr noundef nonnull @.str.4, i32 noundef %length.addr.0)
  store i32 8, ptr %pErrorCode, align 4
  br label %return

if.end70:                                         ; preds = %if.then67
  %cmp71.not = icmp eq ptr %add.ptr41, %cond
  br i1 %cmp71.not, label %if.end74, label %do.body

do.body:                                          ; preds = %if.end70
  %conv73 = sext i32 %10 to i64
  tail call void @llvm.memcpy.p0.p0.i64(ptr align 1 %cond, ptr nonnull align 1 %add.ptr41, i64 %conv73, i1 false)
  br label %if.end74

if.end74:                                         ; preds = %do.body, %if.end70
  %11 = load i32, ptr %indexes, align 16
  %swapArray32 = getelementptr inbounds i8, ptr %ds, i64 56
  %12 = load ptr, ptr %swapArray32, align 8
  %call77 = tail call noundef i32 %12(ptr noundef %ds, ptr noundef nonnull %add.ptr41, i32 noundef %11, ptr noundef %cond, ptr noundef nonnull %pErrorCode)
  %arrayidx78 = getelementptr inbounds i8, ptr %indexes, i64 4
  %13 = load i32, ptr %arrayidx78, align 4
  %idx.ext79 = sext i32 %11 to i64
  %add.ptr80 = getelementptr inbounds i8, ptr %add.ptr41, i64 %idx.ext79
  %sub81 = sub nsw i32 %13, %11
  %add.ptr83 = getelementptr inbounds i8, ptr %cond, i64 %idx.ext79
  %call84 = tail call i32 @utrie_swapAnyVersion_75(ptr noundef %ds, ptr noundef %add.ptr80, i32 noundef %sub81, ptr noundef %add.ptr83, ptr noundef nonnull %pErrorCode)
  %arrayidx85 = getelementptr inbounds i8, ptr %indexes, i64 8
  %14 = load i32, ptr %arrayidx85, align 8
  %swapArray16 = getelementptr inbounds i8, ptr %ds, i64 48
  %15 = load ptr, ptr %swapArray16, align 8
  %idx.ext86 = sext i32 %13 to i64
  %add.ptr87 = getelementptr inbounds i8, ptr %add.ptr41, i64 %idx.ext86
  %sub88 = sub nsw i32 %14, %13
  %add.ptr90 = getelementptr inbounds i8, ptr %cond, i64 %idx.ext86
  %call91 = tail call noundef i32 %15(ptr noundef %ds, ptr noundef %add.ptr87, i32 noundef %sub88, ptr noundef %add.ptr90, ptr noundef nonnull %pErrorCode)
  br label %if.end93

if.end93:                                         ; preds = %if.end74, %for.end
  %add = add nsw i32 %10, %call
  br label %return

return:                                           ; preds = %entry, %lor.lhs.false, %if.end93, %if.then69, %if.then57, %if.then24
  %retval.0 = phi i32 [ 0, %if.then57 ], [ 0, %if.then69 ], [ %add, %if.end93 ], [ 0, %if.then24 ], [ 0, %lor.lhs.false ], [ 0, %entry ]
  ret i32 %retval.0
}